target datalayout = "e-m:e-p270:32:32-p271:32:32-p272:64:64-i64:64-i128:128-f80:128-n8:16:32:64-S128"
target triple = "x86_64-pc-linux-gnu"

%"struct.p2t::Point" = type { double, double, %"class.std::vector" }
%"class.std::vector" = type { %"struct.std::_Vector_base" }
%"struct.std::_Vector_base" = type { %"struct.std::_Vector_base<p2t::Edge *, std::allocator<p2t::Edge *>>::_Vector_impl" }
%"struct.std::_Vector_base<p2t::Edge *, std::allocator<p2t::Edge *>>::_Vector_impl" = type { %"struct.std::_Vector_base<p2t::Edge *, std::allocator<p2t::Edge *>>::_Vector_impl_data" }
%"struct.std::_Vector_base<p2t::Edge *, std::allocator<p2t::Edge *>>::_Vector_impl_data" = type { ptr, ptr, ptr }
%"struct.p2t::Node" = type { ptr, ptr, ptr, ptr, double }

; Function Attrs: mustprogress nounwind uwtable
define hidden noundef double @_ZNK3p2t5Sweep9HoleAngleERKNS_4NodeE(ptr noundef nonnull align 8 dereferenceable(24) %0, ptr noundef nonnull align 8 dereferenceable(40) %1) #2 align 2 {
  %3 = alloca ptr, align 8
  %4 = alloca ptr, align 8
  %5 = alloca double, align 8
  %6 = alloca double, align 8
  %7 = alloca double, align 8
  %8 = alloca double, align 8
  store ptr %0, ptr %3, align 8
  store ptr %1, ptr %4, align 8
  call void @llvm.lifetime.start.p0(i64 8, ptr %5) #14
  %9 = load ptr, ptr %4, align 8
  %10 = getelementptr inbounds nuw %"struct.p2t::Node", ptr %9, i32 0, i32 2
  %11 = load ptr, ptr %10, align 8
  %12 = getelementptr inbounds nuw %"struct.p2t::Node", ptr %11, i32 0, i32 0
  %13 = load ptr, ptr %12, align 8
  %14 = getelementptr inbounds nuw %"struct.p2t::Point", ptr %13, i32 0, i32 0
  %15 = load double, ptr %14, align 8
  %16 = load ptr, ptr %4, align 8
  %17 = getelementptr inbounds nuw %"struct.p2t::Node", ptr %16, i32 0, i32 0
  %18 = load ptr, ptr %17, align 8
  %19 = getelementptr inbounds nuw %"struct.p2t::Point", ptr %18, i32 0, i32 0
  %20 = load double, ptr %19, align 8
  %21 = fsub double %15, %20
  store double %21, ptr %5, align 8
  call void @llvm.lifetime.start.p0(i64 8, ptr %6) #14
  %22 = load ptr, ptr %4, align 8
  %23 = getelementptr inbounds nuw %"struct.p2t::Node", ptr %22, i32 0, i32 2
  %24 = load ptr, ptr %23, align 8
  %25 = getelementptr inbounds nuw %"struct.p2t::Node", ptr %24, i32 0, i32 0
  %26 = load ptr, ptr %25, align 8
  %27 = getelementptr inbounds nuw %"struct.p2t::Point", ptr %26, i32 0, i32 1
  %28 = load double, ptr %27, align 8
  %29 = load ptr, ptr %4, align 8
  %30 = getelementptr inbounds nuw %"struct.p2t::Node", ptr %29, i32 0, i32 0
  %31 = load ptr, ptr %30, align 8
  %32 = getelementptr inbounds nuw %"struct.p2t::Point", ptr %31, i32 0, i32 1
  %33 = load double, ptr %32, align 8
  %34 = fsub double %28, %33
  store double %34, ptr %6, align 8
  call void @llvm.lifetime.start.p0(i64 8, ptr %7) #14
  %35 = load ptr, ptr %4, align 8
  %36 = getelementptr inbounds nuw %"struct.p2t::Node", ptr %35, i32 0, i32 3
  %37 = load ptr, ptr %36, align 8
  %38 = getelementptr inbounds nuw %"struct.p2t::Node", ptr %37, i32 0, i32 0
  %39 = load ptr, ptr %38, align 8
  %40 = getelementptr inbounds nuw %"struct.p2t::Point", ptr %39, i32 0, i32 0
  %41 = load double, ptr %40, align 8
  %42 = load ptr, ptr %4, align 8
  %43 = getelementptr inbounds nuw %"struct.p2t::Node", ptr %42, i32 0, i32 0
  %44 = load ptr, ptr %43, align 8
  %45 = getelementptr inbounds nuw %"struct.p2t::Point", ptr %44, i32 0, i32 0
  %46 = load double, ptr %45, align 8
  %47 = fsub double %41, %46
  store double %47, ptr %7, align 8
  call void @llvm.lifetime.start.p0(i64 8, ptr %8) #14
  %48 = load ptr, ptr %4, align 8
  %49 = getelementptr inbounds nuw %"struct.p2t::Node", ptr %48, i32 0, i32 3
  %50 = load ptr, ptr %49, align 8
  %51 = getelementptr inbounds nuw %"struct.p2t::Node", ptr %50, i32 0, i32 0
  %52 = load ptr, ptr %51, align 8
  %53 = getelementptr inbounds nuw %"struct.p2t::Point", ptr %52, i32 0, i32 1
  %54 = load double, ptr %53, align 8
  %55 = load ptr, ptr %4, align 8
  %56 = getelementptr inbounds nuw %"struct.p2t::Node", ptr %55, i32 0, i32 0
  %57 = load ptr, ptr %56, align 8
  %58 = getelementptr inbounds nuw %"struct.p2t::Point", ptr %57, i32 0, i32 1
  %59 = load double, ptr %58, align 8
  %60 = fsub double %54, %59
  store double %60, ptr %8, align 8
  %61 = load double, ptr %5, align 8
  %62 = load double, ptr %8, align 8
  %63 = load double, ptr %6, align 8
  %64 = load double, ptr %7, align 8
  %65 = fmul double %63, %64
  %66 = fneg double %65
  %67 = call double @llvm.fmuladd.f64(double %61, double %62, double %66)
  %68 = load double, ptr %5, align 8
  %69 = load double, ptr %7, align 8
  %70 = load double, ptr %6, align 8
  %71 = load double, ptr %8, align 8
  %72 = fmul double %70, %71
  %73 = call double @llvm.fmuladd.f64(double %68, double %69, double %72)
  %74 = call double @atan2(double noundef %67, double noundef %73) #14
  call void @llvm.lifetime.end.p0(i64 8, ptr %8) #14
  call void @llvm.lifetime.end.p0(i64 8, ptr %7) #14
  call void @llvm.lifetime.end.p0(i64 8, ptr %6) #14
  call void @llvm.lifetime.end.p0(i64 8, ptr %5) #14
  ret double %74
}