; Function Attrs: mustprogress nofree nounwind willreturn memory(readwrite, inaccessiblemem: write) uwtable
define hidden noundef double @_ZNK3p2t5Sweep9HoleAngleERKNS_4NodeE(ptr noundef nonnull readnone align 8 captures(none) dereferenceable(24) %0, ptr noundef nonnull readonly align 8 captures(none) dereferenceable(40) %1) local_unnamed_addr #8 align 2 {
  %3 = getelementptr inbounds nuw i8, ptr %1, i64 16
  %4 = load ptr, ptr %3, align 8
  %5 = load ptr, ptr %4, align 8
  %6 = load double, ptr %5, align 8
  %7 = load ptr, ptr %1, align 8
  %8 = load double, ptr %7, align 8
  %9 = fsub double %6, %8
  %10 = getelementptr inbounds nuw i8, ptr %5, i64 8
  %11 = load double, ptr %10, align 8
  %12 = getelementptr inbounds nuw i8, ptr %7, i64 8
  %13 = load double, ptr %12, align 8
  %14 = fsub double %11, %13
  %15 = getelementptr inbounds nuw i8, ptr %1, i64 24
  %16 = load ptr, ptr %15, align 8
  %17 = load ptr, ptr %16, align 8
  %18 = load double, ptr %17, align 8
  %19 = fsub double %18, %8
  %20 = getelementptr inbounds nuw i8, ptr %17, i64 8
  %21 = load double, ptr %20, align 8
  %22 = fsub double %21, %13
  %23 = fneg double %19
  %24 = fmul double %14, %23
  %25 = tail call double @llvm.fmuladd.f64(double %9, double %22, double %24)
  %26 = fmul double %14, %22
  %27 = tail call double @llvm.fmuladd.f64(double %9, double %19, double %26)
  %28 = tail call double @atan2(double noundef %25, double noundef %27) #20
  ret double %28
}